Certificate:
    Data:
        Version: 3 (0x2)
        Serial Number: 1 (0x1)
    Signature Algorithm: sha256WithRSAEncryption
        Issuer: C=SK, ST=Bratislava, L=Bratislava, O=Naive, OU=CA, CN=CA Admin/emailAddress=ca@naive.sk
        Validity
            Not Before: Mar 29 20:33:24 2018 GMT
            Not After : Mar 29 20:33:24 2019 GMT
        Subject: C=SK, ST=Bratislava, L=Bratislava, O=Other Company, OU=IT, CN=localhost/emailAddress=admin@other.sk
        Subject Public Key Info:
            Public Key Algorithm: rsaEncryption
                Public-Key: (2048 bit)
                Modulus:
                    00:ab:60:f6:66:30:73:86:22:e0:10:fe:5f:ac:b6:
                    97:6f:27:78:d5:75:1b:47:8c:8c:e0:0f:d0:bb:b7:
                    8a:61:32:87:54:b3:55:c4:c2:f4:ca:6d:e7:48:c7:
                    92:48:35:49:f1:cf:cf:e5:47:77:14:96:0a:a2:f7:
                    ce:4f:14:48:b4:a4:9c:38:66:5d:d9:a2:96:f2:a1:
                    56:9a:77:15:d8:b6:86:8c:50:3c:e4:b3:99:a3:de:
                    71:f3:38:ad:e6:fa:a6:59:5e:65:a5:56:0a:16:d7:
                    73:3f:0f:4b:6f:c3:3c:63:c8:ae:65:e5:fd:f0:b0:
                    91:f3:16:d8:c4:59:da:b8:b0:4e:83:dd:aa:44:08:
                    1f:af:5b:fb:6d:04:98:5a:54:c0:77:4a:5f:64:84:
                    f8:9f:55:98:f4:d1:60:a1:ad:12:95:fc:65:34:3f:
                    8c:b7:fc:45:06:43:77:99:37:96:ce:85:13:a4:ac:
                    06:dd:eb:09:70:e5:64:96:a8:be:7f:28:79:e6:05:
                    46:bd:48:d9:12:a8:c1:f2:20:ff:14:81:48:45:6a:
                    53:b8:d0:5e:85:e5:e0:aa:ce:35:9e:1c:c6:7c:40:
                    e6:f8:35:f2:e5:be:87:ca:66:0b:4e:e1:56:7a:67:
                    97:98:5b:dc:19:8a:74:7f:14:5b:c3:5a:e6:c0:fd:
                    0d:ad
                Exponent: 65537 (0x10001)
        X509v3 extensions:
            X509v3 Basic Constraints: 
                CA:FALSE
            Netscape Comment: 
                OpenSSL Generated Certificate
            X509v3 Subject Key Identifier: 
                C5:B2:65:6D:9B:8C:D3:ED:4E:67:AC:5F:06:5A:5C:BA:96:EF:7F:50
            X509v3 Authority Key Identifier: 
                keyid:11:87:B7:73:BA:A4:09:0C:C8:2F:44:C7:8C:A5:9F:58:14:4B:9F:E4

    Signature Algorithm: sha256WithRSAEncryption
         83:29:b7:92:b2:ec:72:58:79:53:b7:ac:d3:04:0d:3a:2c:4c:
         63:a8:a6:4e:17:6a:e8:c5:62:51:68:0e:53:10:ca:20:9d:94:
         ee:72:fd:fe:23:41:bd:8c:d0:c9:a2:99:ff:ef:5f:d4:e0:bb:
         09:e0:76:fc:7f:b6:51:6d:e5:6c:3e:30:f7:33:61:6e:ce:40:
         43:95:27:05:7f:e7:63:ee:33:6e:c3:cc:92:c5:d6:d3:81:74:
         da:4a:63:b7:d4:43:e3:96:bd:4a:0b:21:c9:b5:06:15:b8:ce:
         18:43:19:46:3c:5c:6c:08:aa:87:b9:5e:5b:e6:24:e4:1e:17:
         48:ce
-----BEGIN CERTIFICATE-----
MIIDiTCCAvKgAwIBAgIBATANBgkqhkiG9w0BAQsFADCBgzELMAkGA1UEBhMCU0sx
EzARBgNVBAgMCkJyYXRpc2xhdmExEzARBgNVBAcMCkJyYXRpc2xhdmExDjAMBgNV
BAoMBU5haXZlMQswCQYDVQQLDAJDQTERMA8GA1UEAwwIQ0EgQWRtaW4xGjAYBgkq
hkiG9w0BCQEWC2NhQG5haXZlLnNrMB4XDTE4MDMyOTIwMzMyNFoXDTE5MDMyOTIw
MzMyNFowgY8xCzAJBgNVBAYTAlNLMRMwEQYDVQQIDApCcmF0aXNsYXZhMRMwEQYD
VQQHDApCcmF0aXNsYXZhMRYwFAYDVQQKDA1PdGhlciBDb21wYW55MQswCQYDVQQL
DAJJVDESMBAGA1UEAwwJbG9jYWxob3N0MR0wGwYJKoZIhvcNAQkBFg5hZG1pbkBv
dGhlci5zazCCASIwDQYJKoZIhvcNAQEBBQADggEPADCCAQoCggEBAKtg9mYwc4Yi
4BD+X6y2l28neNV1G0eMjOAP0Lu3imEyh1SzVcTC9Mpt50jHkkg1SfHPz+VHdxSW
CqL3zk8USLSknDhmXdmilvKhVpp3Fdi2hoxQPOSzmaPecfM4reb6plleZaVWChbX
cz8PS2/DPGPIrmXl/fCwkfMW2MRZ2riwToPdqkQIH69b+20EmFpUwHdKX2SE+J9V
mPTRYKGtEpX8ZTQ/jLf8RQZDd5k3ls6FE6SsBt3rCXDlZJaovn8oeeYFRr1I2RKo
wfIg/xSBSEVqU7jQXoXl4KrONZ4cxnxA5vg18uW+h8pmC07hVnpnl5hb3BmKdH8U
W8Na5sD9Da0CAwEAAaN7MHkwCQYDVR0TBAIwADAsBglghkgBhvhCAQ0EHxYdT3Bl
blNTTCBHZW5lcmF0ZWQgQ2VydGlmaWNhdGUwHQYDVR0OBBYEFMWyZW2bjNPtTmes
XwZaXLqW739QMB8GA1UdIwQYMBaAFBGHt3O6pAkMyC9Ex4yln1gUS5/kMA0GCSqG
SIb3DQEBCwUAA4GBAIMpt5Ky7HJYeVO3rNMEDTosTGOopk4XaujFYlFoDlMQyiCd
lO5y/f4jQb2M0Mmimf/vX9Tguwngdvx/tlFt5Ww+MPczYW7OQEOVJwV/52PuM27D
zJLF1tOBdNpKY7fUQ+OWvUoLIcm1BhW4zhhDGUY8XGwIqoe5XlvmJOQeF0jO
-----END CERTIFICATE-----
